target datalayout = "e-m:e-p270:32:32-p271:32:32-p272:64:64-i64:64-i128:128-f80:128-n8:16:32:64-S128"
target triple = "x86_64-unknown-linux-gnu"

%struct.BlockDriverState = type { i32, i8, i8, i8, i8, i8, ptr, ptr, ptr, %struct.anon, i8, [4096 x i8], [4096 x i8], [4096 x i8], [16 x i8], ptr, [4096 x i8], %struct.BlockLimits, i32, i32, i32, i32, [32 x i8], %union.anon, %union.anon.0, %union.anon.1, i32, [16 x %struct.anon.2], ptr, %struct.anon.3, ptr, ptr, %struct.anon.4, ptr, ptr, i32, ptr, i64, i64, %struct.QemuMutex, %struct.anon.5, %struct.Stat64, i32, i32, i32, i32, i32, i32, %struct.QemuMutex, %struct.anon.6, %struct.CoQueue, i8, i32, i8, %struct.CoMutex, ptr, ptr }
%struct.anon = type { ptr }
%struct.BlockLimits = type { i32, i64, i32, i64, i32, i32, i32, i64, i32, i64, i64, i32, i8, i32, i32, i32, i32, i32, i32, i32 }
%union.anon = type { %struct.QTailQLink }
%struct.QTailQLink = type { ptr, ptr }
%union.anon.0 = type { %struct.QTailQLink }
%union.anon.1 = type { %struct.QTailQLink }
%struct.anon.2 = type { ptr }
%struct.anon.3 = type { ptr }
%struct.anon.4 = type { ptr }
%struct.anon.5 = type { ptr }
%struct.Stat64 = type { i64 }
%struct.QemuMutex = type { %union.pthread_mutex_t, i8 }
%union.pthread_mutex_t = type { %struct.__pthread_mutex_s }
%struct.__pthread_mutex_s = type { i32, i32, i32, i32, i32, i16, i16, %struct.__pthread_internal_list }
%struct.__pthread_internal_list = type { ptr, ptr }
%struct.anon.6 = type { ptr }
%struct.CoQueue = type { %struct.anon.7 }
%struct.anon.7 = type { ptr, ptr }
%struct.CoMutex = type { i32, ptr, %struct.anon.8, %struct.anon.8, i32, i32, ptr }
%struct.anon.8 = type { ptr }
%struct.BDRVQcow2State = type { i32, i32, i32, i32, i32, i32, i32, i32, i32, i32, i32, i32, i32, i32, i64, i64, ptr, ptr, ptr, ptr, i32, %struct.anon.9, ptr, i64, i32, i32, i64, i64, %struct.CoMutex, %struct.Qcow2CryptoHeaderExtension, ptr, ptr, i8, i32, i64, i32, i32, ptr, i32, i64, i64, i32, i32, i8, i32, i32, i64, ptr, ptr, [5 x i8], i8, i32, i8, i64, i64, i64, i64, ptr, %struct.anon.10, %union.anon.11, i8, ptr, ptr, ptr, %struct.CoQueue, i32, ptr, i8, i8, i32 }
%struct.anon.9 = type { ptr }
%struct.Qcow2CryptoHeaderExtension = type { i64, i64 }
%struct.anon.10 = type { ptr }
%union.anon.11 = type { %struct.QTailQLink }

@.str.1 = private unnamed_addr constant [31 x i8] c"../qemu/block/qcow2-refcount.c\00", align 1
@.str.32 = private unnamed_addr constant [39 x i8] c"metadata_ol_bitnr < QCOW2_OL_MAX_BITNR\00", align 1
@__PRETTY_FUNCTION__.qcow2_pre_write_overlap_check = private unnamed_addr constant [84 x i8] c"int qcow2_pre_write_overlap_check(BlockDriverState *, int, int64_t, int64_t, _Bool)\00", align 1
@.str.33 = private unnamed_addr constant [56 x i8] c"Preventing invalid write on metadata (overlaps with %s)\00", align 1
@metadata_ol_names = internal global [9 x ptr] [ptr @.str.105, ptr @.str.106, ptr @.str.107, ptr @.str.108, ptr @.str.109, ptr @.str.110, ptr @.str.111, ptr @.str.112, ptr @.str.113], align 16
@.str.38 = private unnamed_addr constant [21 x i8] c"Overlap check failed\00", align 1
@__func__.flush_refblock = private unnamed_addr constant [15 x i8] c"flush_refblock\00", align 1
@.str.120 = private unnamed_addr constant [25 x i8] c"Failed to write refblock\00", align 1
@.str.121 = private unnamed_addr constant [15 x i8] c"refblock_empty\00", align 1
@__PRETTY_FUNCTION__.flush_refblock = private unnamed_addr constant [108 x i8] c"int flush_refblock(BlockDriverState *, uint64_t **, uint64_t, uint64_t *, void *, _Bool, _Bool *, Error **)\00", align 1

; Function Attrs: nounwind sspstrong uwtable
define internal i32 @ctz32(i32 noundef %val) #0 {
entry:
  %val.addr = alloca i32, align 4
  store i32 %val, ptr %val.addr, align 4
  %0 = load i32, ptr %val.addr, align 4
  %tobool = icmp ne i32 %0, 0
  br i1 %tobool, label %cond.true, label %cond.false

cond.true:                                        ; preds = %entry
  %1 = load i32, ptr %val.addr, align 4
  %2 = call i32 @llvm.cttz.i32(i32 %1, i1 true)
  br label %cond.end

cond.false:                                       ; preds = %entry
  br label %cond.end

cond.end:                                         ; preds = %cond.false, %cond.true
  %cond = phi i32 [ %2, %cond.true ], [ 32, %cond.false ]
  ret i32 %cond
}

; Function Attrs: nounwind sspstrong uwtable
define internal zeroext i1 @has_data_file(ptr noundef %bs) #0 {
entry:
  %bs.addr = alloca ptr, align 8
  %s = alloca ptr, align 8
  store ptr %bs, ptr %bs.addr, align 8
  %0 = load ptr, ptr %bs.addr, align 8
  %opaque = getelementptr inbounds %struct.BlockDriverState, ptr %0, i32 0, i32 7
  %1 = load ptr, ptr %opaque, align 8
  store ptr %1, ptr %s, align 8
  %2 = load ptr, ptr %s, align 8
  %data_file = getelementptr inbounds %struct.BDRVQcow2State, ptr %2, i32 0, i32 66
  %3 = load ptr, ptr %data_file, align 8
  %4 = load ptr, ptr %bs.addr, align 8
  %file = getelementptr inbounds %struct.BlockDriverState, ptr %4, i32 0, i32 31
  %5 = load ptr, ptr %file, align 8
  %cmp = icmp ne ptr %3, %5
  ret i1 %cmp
}

; Function Attrs: nounwind sspstrong uwtable
define dso_local i32 @qcow2_pre_write_overlap_check(ptr noundef %bs, i32 noundef %ign, i64 noundef %offset, i64 noundef %size, i1 noundef zeroext %data_file) #0 {
entry:
  %retval = alloca i32, align 4
  %bs.addr = alloca ptr, align 8
  %ign.addr = alloca i32, align 4
  %offset.addr = alloca i64, align 8
  %size.addr = alloca i64, align 8
  %data_file.addr = alloca i8, align 1
  %ret = alloca i32, align 4
  %metadata_ol_bitnr = alloca i32, align 4
  store ptr %bs, ptr %bs.addr, align 8
  store i32 %ign, ptr %ign.addr, align 4
  store i64 %offset, ptr %offset.addr, align 8
  store i64 %size, ptr %size.addr, align 8
  %frombool = zext i1 %data_file to i8
  store i8 %frombool, ptr %data_file.addr, align 1
  %0 = load i8, ptr %data_file.addr, align 1
  %tobool = trunc i8 %0 to i1
  br i1 %tobool, label %land.lhs.true, label %if.end

land.lhs.true:                                    ; preds = %entry
  %1 = load ptr, ptr %bs.addr, align 8
  %call = call zeroext i1 @has_data_file(ptr noundef %1)
  br i1 %call, label %if.then, label %if.end

if.then:                                          ; preds = %land.lhs.true
  store i32 0, ptr %retval, align 4
  br label %return

if.end:                                           ; preds = %land.lhs.true, %entry
  %2 = load ptr, ptr %bs.addr, align 8
  %3 = load i32, ptr %ign.addr, align 4
  %4 = load i64, ptr %offset.addr, align 8
  %5 = load i64, ptr %size.addr, align 8
  %call1 = call i32 @qcow2_check_metadata_overlap(ptr noundef %2, i32 noundef %3, i64 noundef %4, i64 noundef %5)
  store i32 %call1, ptr %ret, align 4
  %6 = load i32, ptr %ret, align 4
  %cmp = icmp slt i32 %6, 0
  br i1 %cmp, label %if.then2, label %if.else

if.then2:                                         ; preds = %if.end
  %7 = load i32, ptr %ret, align 4
  store i32 %7, ptr %retval, align 4
  br label %return

if.else:                                          ; preds = %if.end
  %8 = load i32, ptr %ret, align 4
  %cmp3 = icmp sgt i32 %8, 0
  br i1 %cmp3, label %if.then4, label %if.end10

if.then4:                                         ; preds = %if.else
  %9 = load i32, ptr %ret, align 4
  %call5 = call i32 @ctz32(i32 noundef %9)
  store i32 %call5, ptr %metadata_ol_bitnr, align 4
  %10 = load i32, ptr %metadata_ol_bitnr, align 4
  %cmp6 = icmp slt i32 %10, 9
  br i1 %cmp6, label %if.then7, label %if.else8

if.then7:                                         ; preds = %if.then4
  br label %if.end9

if.else8:                                         ; preds = %if.then4
  call void @__assert_fail(ptr noundef @.str.32, ptr noundef @.str.1, i32 noundef 3083, ptr noundef @__PRETTY_FUNCTION__.qcow2_pre_write_overlap_check) #10
  unreachable

if.end9:                                          ; preds = %if.then7
  %11 = load ptr, ptr %bs.addr, align 8
  %12 = load i64, ptr %offset.addr, align 8
  %13 = load i64, ptr %size.addr, align 8
  %14 = load i32, ptr %metadata_ol_bitnr, align 4
  %idxprom = sext i32 %14 to i64
  %arrayidx = getelementptr [9 x ptr], ptr @metadata_ol_names, i64 0, i64 %idxprom
  %15 = load ptr, ptr %arrayidx, align 8
  call void (ptr, i1, i64, i64, ptr, ...) @qcow2_signal_corruption(ptr noundef %11, i1 noundef zeroext true, i64 noundef %12, i64 noundef %13, ptr noundef @.str.33, ptr noundef %15)
  store i32 -5, ptr %retval, align 4
  br label %return

if.end10:                                         ; preds = %if.else
  br label %if.end11

if.end11:                                         ; preds = %if.end10
  store i32 0, ptr %retval, align 4
  br label %return

return:                                           ; preds = %if.end11, %if.end9, %if.then2, %if.then
  %16 = load i32, ptr %retval, align 4
  ret i32 %16
}

; Function Attrs: nounwind sspstrong uwtable
define internal i32 @flush_refblock(ptr noundef %bs, ptr noundef %reftable, i64 noundef %reftable_index, ptr noundef %reftable_size, ptr noundef %refblock, i1 noundef zeroext %refblock_empty, ptr noundef %allocated, ptr noundef %errp) #0 {
entry:
  %retval = alloca i32, align 4
  %bs.addr = alloca ptr, align 8
  %reftable.addr = alloca ptr, align 8
  %reftable_index.addr = alloca i64, align 8
  %reftable_size.addr = alloca ptr, align 8
  %refblock.addr = alloca ptr, align 8
  %refblock_empty.addr = alloca i8, align 1
  %allocated.addr = alloca ptr, align 8
  %errp.addr = alloca ptr, align 8
  %s = alloca ptr, align 8
  %offset = alloca i64, align 8
  %ret = alloca i32, align 4
  store ptr %bs, ptr %bs.addr, align 8
  store ptr %reftable, ptr %reftable.addr, align 8
  store i64 %reftable_index, ptr %reftable_index.addr, align 8
  store ptr %reftable_size, ptr %reftable_size.addr, align 8
  store ptr %refblock, ptr %refblock.addr, align 8
  %frombool = zext i1 %refblock_empty to i8
  store i8 %frombool, ptr %refblock_empty.addr, align 1
  store ptr %allocated, ptr %allocated.addr, align 8
  store ptr %errp, ptr %errp.addr, align 8
  %0 = load ptr, ptr %bs.addr, align 8
  %opaque = getelementptr inbounds %struct.BlockDriverState, ptr %0, i32 0, i32 7
  %1 = load ptr, ptr %opaque, align 8
  store ptr %1, ptr %s, align 8
  %2 = load i64, ptr %reftable_index.addr, align 8
  %3 = load ptr, ptr %reftable_size.addr, align 8
  %4 = load i64, ptr %3, align 8
  %cmp = icmp ult i64 %2, %4
  br i1 %cmp, label %land.lhs.true, label %if.else

land.lhs.true:                                    ; preds = %entry
  %5 = load ptr, ptr %reftable.addr, align 8
  %6 = load ptr, ptr %5, align 8
  %7 = load i64, ptr %reftable_index.addr, align 8
  %arrayidx = getelementptr i64, ptr %6, i64 %7
  %8 = load i64, ptr %arrayidx, align 8
  %tobool = icmp ne i64 %8, 0
  br i1 %tobool, label %if.then, label %if.else

if.then:                                          ; preds = %land.lhs.true
  %9 = load ptr, ptr %reftable.addr, align 8
  %10 = load ptr, ptr %9, align 8
  %11 = load i64, ptr %reftable_index.addr, align 8
  %arrayidx1 = getelementptr i64, ptr %10, i64 %11
  %12 = load i64, ptr %arrayidx1, align 8
  store i64 %12, ptr %offset, align 8
  %13 = load ptr, ptr %bs.addr, align 8
  %14 = load i64, ptr %offset, align 8
  %15 = load ptr, ptr %s, align 8
  %cluster_size = getelementptr inbounds %struct.BDRVQcow2State, ptr %15, i32 0, i32 1
  %16 = load i32, ptr %cluster_size, align 4
  %conv = sext i32 %16 to i64
  %call = call i32 @qcow2_pre_write_overlap_check(ptr noundef %13, i32 noundef 0, i64 noundef %14, i64 noundef %conv, i1 noundef zeroext false)
  store i32 %call, ptr %ret, align 4
  %17 = load i32, ptr %ret, align 4
  %cmp2 = icmp slt i32 %17, 0
  br i1 %cmp2, label %if.then4, label %if.end

if.then4:                                         ; preds = %if.then
  %18 = load ptr, ptr %errp.addr, align 8
  %19 = load i32, ptr %ret, align 4
  %sub = sub i32 0, %19
  call void (ptr, ptr, i32, ptr, i32, ptr, ...) @error_setg_errno_internal(ptr noundef %18, ptr noundef @.str.1, i32 noundef 3185, ptr noundef @__func__.flush_refblock, i32 noundef %sub, ptr noundef @.str.38)
  %20 = load i32, ptr %ret, align 4
  store i32 %20, ptr %retval, align 4
  br label %return

if.end:                                           ; preds = %if.then
  %21 = load ptr, ptr %bs.addr, align 8
  %file = getelementptr inbounds %struct.BlockDriverState, ptr %21, i32 0, i32 31
  %22 = load ptr, ptr %file, align 8
  %23 = load i64, ptr %offset, align 8
  %24 = load ptr, ptr %s, align 8
  %cluster_size5 = getelementptr inbounds %struct.BDRVQcow2State, ptr %24, i32 0, i32 1
  %25 = load i32, ptr %cluster_size5, align 4
  %conv6 = sext i32 %25 to i64
  %26 = load ptr, ptr %refblock.addr, align 8
  %call7 = call i32 @bdrv_pwrite(ptr noundef %22, i64 noundef %23, i64 noundef %conv6, ptr noundef %26, i32 noundef 0)
  store i32 %call7, ptr %ret, align 4
  %27 = load i32, ptr %ret, align 4
  %cmp8 = icmp slt i32 %27, 0
  br i1 %cmp8, label %if.then10, label %if.end12

if.then10:                                        ; preds = %if.end
  %28 = load ptr, ptr %errp.addr, align 8
  %29 = load i32, ptr %ret, align 4
  %sub11 = sub i32 0, %29
  call void (ptr, ptr, i32, ptr, i32, ptr, ...) @error_setg_errno_internal(ptr noundef %28, ptr noundef @.str.1, i32 noundef 3191, ptr noundef @__func__.flush_refblock, i32 noundef %sub11, ptr noundef @.str.120)
  %30 = load i32, ptr %ret, align 4
  store i32 %30, ptr %retval, align 4
  br label %return

if.end12:                                         ; preds = %if.end
  br label %if.end17

if.else:                                          ; preds = %land.lhs.true, %entry
  %31 = load i8, ptr %refblock_empty.addr, align 1
  %tobool13 = trunc i8 %31 to i1
  br i1 %tobool13, label %if.then14, label %if.else15

if.then14:                                        ; preds = %if.else
  br label %if.end16

if.else15:                                        ; preds = %if.else
  call void @__assert_fail(ptr noundef @.str.121, ptr noundef @.str.1, i32 noundef 3195, ptr noundef @__PRETTY_FUNCTION__.flush_refblock) #10
  unreachable

if.end16:                                         ; preds = %if.then14
  br label %if.end17

if.end17:                                         ; preds = %if.end16, %if.end12
  store i32 0, ptr %retval, align 4
  br label %return

return:                                           ; preds = %if.end17, %if.then10, %if.then4
  %32 = load i32, ptr %retval, align 4
  ret i32 %32
}