; Function Attrs: nounwind sspstrong uwtable
define internal range(i32 -2147483648, 1) i32 @flush_refblock(ptr noundef %bs, ptr noundef readonly captures(none) %reftable, i64 noundef %reftable_index, ptr noundef readonly captures(none) %reftable_size, ptr noundef %refblock, i1 noundef zeroext %refblock_empty, ptr readnone captures(none) %allocated, ptr noundef %errp) #0 {
entry:
  %opaque = getelementptr inbounds nuw i8, ptr %bs, i64 24
  %0 = load ptr, ptr %opaque, align 8
  %1 = load i64, ptr %reftable_size, align 8
  %cmp = icmp ult i64 %reftable_index, %1
  br i1 %cmp, label %land.lhs.true, label %if.else

land.lhs.true:                                    ; preds = %entry
  %2 = load ptr, ptr %reftable, align 8
  %arrayidx = getelementptr i64, ptr %2, i64 %reftable_index
  %3 = load i64, ptr %arrayidx, align 8
  %tobool.not = icmp eq i64 %3, 0
  br i1 %tobool.not, label %if.else, label %if.then

if.then:                                          ; preds = %land.lhs.true
  %cluster_size = getelementptr inbounds nuw i8, ptr %0, i64 4
  %4 = load i32, ptr %cluster_size, align 4
  %conv = sext i32 %4 to i64
  %call1.i = tail call i32 @qcow2_check_metadata_overlap(ptr noundef nonnull %bs, i32 noundef 0, i64 noundef %3, i64 noundef %conv)
  %cmp.i = icmp slt i32 %call1.i, 0
  br i1 %cmp.i, label %if.then4, label %if.else.i

if.else.i:                                        ; preds = %if.then
  %cmp3.not.i = icmp eq i32 %call1.i, 0
  br i1 %cmp3.not.i, label %if.end, label %if.then4.i

if.then4.i:                                       ; preds = %if.else.i
  %5 = tail call range(i32 0, 9) i32 @llvm.cttz.i32(i32 range(i32 1, 257) %call1.i, i1 true)
  %idxprom.i = zext nneg i32 %5 to i64
  %arrayidx.i = getelementptr [9 x ptr], ptr @metadata_ol_names, i64 0, i64 %idxprom.i
  %6 = load ptr, ptr %arrayidx.i, align 8
  tail call void (ptr, i1, i64, i64, ptr, ...) @qcow2_signal_corruption(ptr noundef nonnull %bs, i1 noundef zeroext true, i64 noundef %3, i64 noundef %conv, ptr noundef nonnull @.str.33, ptr noundef %6) #17
  br label %if.then4

if.then4:                                         ; preds = %if.then4.i, %if.then
  %retval.0.i.ph = phi i32 [ %call1.i, %if.then ], [ -5, %if.then4.i ]
  %sub = sub i32 0, %retval.0.i.ph
  tail call void (ptr, ptr, i32, ptr, i32, ptr, ...) @error_setg_errno_internal(ptr noundef %errp, ptr noundef nonnull @.str.1, i32 noundef 3185, ptr noundef nonnull @__func__.flush_refblock, i32 noundef %sub, ptr noundef nonnull @.str.38) #17
  br label %return

if.end:                                           ; preds = %if.else.i
  %file = getelementptr inbounds nuw i8, ptr %bs, i64 16840
  %7 = load ptr, ptr %file, align 8
  %8 = load i32, ptr %cluster_size, align 4
  %conv6 = sext i32 %8 to i64
  %call7 = tail call i32 @bdrv_pwrite(ptr noundef %7, i64 noundef %3, i64 noundef %conv6, ptr noundef %refblock, i32 noundef 0) #17
  %cmp8 = icmp slt i32 %call7, 0
  br i1 %cmp8, label %if.then10, label %return

if.then10:                                        ; preds = %if.end
  %sub11 = sub i32 0, %call7
  tail call void (ptr, ptr, i32, ptr, i32, ptr, ...) @error_setg_errno_internal(ptr noundef %errp, ptr noundef nonnull @.str.1, i32 noundef 3191, ptr noundef nonnull @__func__.flush_refblock, i32 noundef %sub11, ptr noundef nonnull @.str.120) #17
  br label %return

if.else:                                          ; preds = %land.lhs.true, %entry
  br i1 %refblock_empty, label %return, label %if.else15

if.else15:                                        ; preds = %if.else
  tail call void @__assert_fail(ptr noundef nonnull @.str.121, ptr noundef nonnull @.str.1, i32 noundef 3195, ptr noundef nonnull @__PRETTY_FUNCTION__.flush_refblock) #15
  unreachable

return:                                           ; preds = %if.end, %if.else, %if.then10, %if.then4
  %retval.0 = phi i32 [ %retval.0.i.ph, %if.then4 ], [ %call7, %if.then10 ], [ 0, %if.else ], [ 0, %if.end ]
  ret i32 %retval.0
}